target datalayout = "e-m:e-p270:32:32-p271:32:32-p272:64:64-i64:64-i128:128-f80:128-n8:16:32:64-S128"
target triple = "x86_64-pc-linux-gnu"

; Function Attrs: mustprogress nounwind uwtable
define internal noundef zeroext i1 @_ZN12_GLOBAL__N_110MasmParser28parseDirectiveCFISignalFrameEv(ptr noundef nonnull align 8 dereferenceable(1144) %0) #0 align 2 {
  %2 = alloca i1, align 1
  %3 = alloca ptr, align 8
  store ptr %0, ptr %3, align 8
  %4 = load ptr, ptr %3, align 8
  %5 = call noundef zeroext i1 @_ZN4llvm11MCAsmParser8parseEOLEv(ptr noundef nonnull align 8 dereferenceable(34) %4)
  br i1 %5, label %6, label %7

6:                                                ; preds = %1
  store i1 true, ptr %2, align 1
  br label %15

7:                                                ; preds = %1
  %8 = load ptr, ptr %4, align 8
  %9 = getelementptr inbounds ptr, ptr %8, i64 7
  %10 = load ptr, ptr %9, align 8
  %11 = call noundef nonnull align 8 dereferenceable(288) ptr %10(ptr noundef nonnull align 8 dereferenceable(1144) %4)
  %12 = load ptr, ptr %11, align 8
  %13 = getelementptr inbounds ptr, ptr %12, i64 126
  %14 = load ptr, ptr %13, align 8
  call void %14(ptr noundef nonnull align 8 dereferenceable(288) %11)
  store i1 false, ptr %2, align 1
  br label %15

15:                                               ; preds = %7, %6
  %16 = load i1, ptr %2, align 1
  ret i1 %16
}