; Function Attrs: mustprogress nounwind uwtable
define internal fastcc noundef zeroext i1 @_ZN12_GLOBAL__N_110MasmParser28parseDirectiveCFISignalFrameEv(ptr noundef nonnull align 8 dereferenceable(1144) %0) unnamed_addr #0 align 2 {
  %2 = tail call noundef zeroext i1 @_ZN4llvm11MCAsmParser8parseEOLEv(ptr noundef nonnull align 8 dereferenceable(34) %0) #24
  br i1 %2, label %11, label %3

3:                                                ; preds = %1
  %4 = load ptr, ptr %0, align 8
  %5 = getelementptr inbounds nuw i8, ptr %4, i64 56
  %6 = load ptr, ptr %5, align 8
  %7 = tail call noundef nonnull align 8 dereferenceable(288) ptr %6(ptr noundef nonnull align 8 dereferenceable(1144) %0) #24
  %8 = load ptr, ptr %7, align 8
  %9 = getelementptr inbounds nuw i8, ptr %8, i64 1008
  %10 = load ptr, ptr %9, align 8
  tail call void %10(ptr noundef nonnull align 8 dereferenceable(288) %7) #24
  br label %11

11:                                               ; preds = %1, %3
  ret i1 %2
}